target datalayout = "e-m:e-p270:32:32-p271:32:32-p272:64:64-i64:64-i128:128-f80:128-n8:16:32:64-S128"
target triple = "x86_64-pc-linux-gnu"

%struct.erf_if_mapping = type { i64, i8, [8 x %struct.erf_if_info], ptr, ptr, i8, i32, i32, i64, i64 }
%struct.erf_if_info = type { i32, ptr, ptr, i32, %struct.anon.1 }
%struct.anon.1 = type { i8, [3 x i8] }

; Function Attrs: null_pointer_is_valid sspstrong uwtable
define internal void @erf_if_mapping_destroy(ptr noundef %0) #0 {
  %2 = alloca ptr, align 8
  %3 = alloca i32, align 4
  %4 = alloca ptr, align 8
  store ptr %0, ptr %2, align 8
  call void @llvm.lifetime.start.p0(i64 4, ptr %3) #16
  store i32 0, ptr %3, align 4
  call void @llvm.lifetime.start.p0(i64 8, ptr %4) #16
  %5 = load ptr, ptr %2, align 8
  store ptr %5, ptr %4, align 8
  store i32 0, ptr %3, align 4
  br label %6

6:                                                ; preds = %24, %1
  %7 = load i32, ptr %3, align 4
  %8 = icmp slt i32 %7, 8
  br i1 %8, label %9, label %27

9:                                                ; preds = %6
  %10 = load ptr, ptr %4, align 8
  %11 = getelementptr inbounds nuw %struct.erf_if_mapping, ptr %10, i32 0, i32 2
  %12 = load i32, ptr %3, align 4
  %13 = sext i32 %12 to i64
  %14 = getelementptr [8 x %struct.erf_if_info], ptr %11, i64 0, i64 %13
  %15 = getelementptr inbounds nuw %struct.erf_if_info, ptr %14, i32 0, i32 1
  %16 = load ptr, ptr %15, align 8
  call void @g_free(ptr noundef %16)
  %17 = load ptr, ptr %4, align 8
  %18 = getelementptr inbounds nuw %struct.erf_if_mapping, ptr %17, i32 0, i32 2
  %19 = load i32, ptr %3, align 4
  %20 = sext i32 %19 to i64
  %21 = getelementptr [8 x %struct.erf_if_info], ptr %18, i64 0, i64 %20
  %22 = getelementptr inbounds nuw %struct.erf_if_info, ptr %21, i32 0, i32 2
  %23 = load ptr, ptr %22, align 8
  call void @g_free(ptr noundef %23)
  br label %24

24:                                               ; preds = %9
  %25 = load i32, ptr %3, align 4
  %26 = add i32 %25, 1
  store i32 %26, ptr %3, align 4
  br label %6, !llvm.loop !6

27:                                               ; preds = %6
  %28 = load ptr, ptr %4, align 8
  %29 = getelementptr inbounds nuw %struct.erf_if_mapping, ptr %28, i32 0, i32 3
  %30 = load ptr, ptr %29, align 8
  call void @g_free(ptr noundef %30)
  %31 = load ptr, ptr %4, align 8
  call void @g_free(ptr noundef %31)
  call void @llvm.lifetime.end.p0(i64 8, ptr %4) #16
  call void @llvm.lifetime.end.p0(i64 4, ptr %3) #16
  ret void
}